; Function Attrs: mustprogress nounwind uwtable
define hidden void @_ZNK9loadDNode4emitEP17C2_MacroAssemblerP13PhaseRegAlloc(ptr noundef nonnull align 8 dereferenceable(80) %0, ptr noundef %1, ptr noundef %2) unnamed_addr #3 align 2 {
  %4 = alloca %class.Address, align 8
  %5 = alloca %class.Address, align 8
  %6 = alloca %class.Address, align 8
  %7 = alloca %class.Address, align 8
  %8 = alloca %class.Address, align 8
  %9 = getelementptr inbounds i8, ptr %0, i64 64
  %10 = load ptr, ptr %9, align 8
  %11 = load ptr, ptr %10, align 8
  %12 = getelementptr inbounds i8, ptr %11, i64 32
  %13 = load ptr, ptr %12, align 8
  %14 = tail call noundef i32 %13(ptr noundef nonnull align 8 dereferenceable(8) %10, ptr noundef %2, ptr noundef nonnull %0) #23
  %or.cond.i.i = icmp ult i32 %14, 32
  %spec.select.i.i = select i1 %or.cond.i.i, i32 %14, i32 -1
  %15 = getelementptr inbounds i8, ptr %0, i64 72
  %16 = load ptr, ptr %15, align 8
  %17 = load ptr, ptr %16, align 8
  %18 = getelementptr inbounds i8, ptr %17, i64 104
  %19 = load ptr, ptr %18, align 8
  %20 = tail call noundef i32 %19(ptr noundef nonnull align 8 dereferenceable(8) %16, ptr noundef %2, ptr noundef nonnull %0, i32 noundef 2) #23
  %21 = load ptr, ptr %15, align 8
  %22 = load ptr, ptr %21, align 8
  %23 = getelementptr inbounds i8, ptr %22, i64 112
  %24 = load ptr, ptr %23, align 8
  %25 = tail call noundef i32 %24(ptr noundef nonnull align 8 dereferenceable(8) %21, ptr noundef %2, ptr noundef nonnull %0, i32 noundef 2) #23
  %26 = load ptr, ptr %15, align 8
  %27 = load ptr, ptr %26, align 8
  %28 = getelementptr inbounds i8, ptr %27, i64 120
  %29 = load ptr, ptr %28, align 8
  %30 = tail call noundef i32 %29(ptr noundef nonnull align 8 dereferenceable(8) %26) #23
  %31 = load ptr, ptr %15, align 8
  %32 = load ptr, ptr %31, align 8
  %33 = getelementptr inbounds i8, ptr %32, i64 128
  %34 = load ptr, ptr %33, align 8
  %35 = tail call noundef i32 %34(ptr noundef nonnull align 8 dereferenceable(8) %31, ptr noundef %2, ptr noundef nonnull %0, i32 noundef 2) #23
  %36 = load ptr, ptr %15, align 8
  %37 = load ptr, ptr %36, align 8
  %38 = getelementptr inbounds i8, ptr %37, i64 136
  %39 = load ptr, ptr %38, align 8
  %40 = tail call noundef i32 %39(ptr noundef nonnull align 8 dereferenceable(8) %36) #23
  call void @_ZN7Address8make_rawEiiiiN9relocInfo9relocTypeE(ptr dead_on_unwind nonnull writable sret(%class.Address) align 8 %8, i32 noundef %20, i32 noundef %25, i32 noundef %30, i32 noundef %35, i32 noundef %40) #23
  call void @llvm.lifetime.start.p0(i64 64, ptr nonnull %6)
  call void @llvm.lifetime.start.p0(i64 64, ptr nonnull %7)
  %41 = load i8, ptr @UseXmmLoadAndClearUpper, align 1
  %42 = trunc i8 %41 to i1
  %43 = getelementptr inbounds i8, ptr %8, i64 24
  br i1 %42, label %44, label %53

44:                                               ; preds = %3
  call void @llvm.memcpy.p0.p0.i64(ptr noundef nonnull align 8 dereferenceable(21) %6, ptr noundef nonnull align 8 dereferenceable(21) %8, i64 21, i1 false)
  %45 = getelementptr inbounds i8, ptr %6, i64 24
  %46 = load ptr, ptr %43, align 8
  %47 = getelementptr inbounds i8, ptr %46, i64 16
  %48 = load ptr, ptr %47, align 8
  call void %48(ptr noundef nonnull align 8 dereferenceable(20) %43, ptr noundef nonnull align 8 dereferenceable(40) %45) #23
  call void @llvm.lifetime.start.p0(i64 64, ptr nonnull %5)
  call void @llvm.memcpy.p0.p0.i64(ptr noundef nonnull align 8 dereferenceable(21) %5, ptr noundef nonnull align 8 dereferenceable(21) %6, i64 21, i1 false)
  %49 = getelementptr inbounds i8, ptr %5, i64 24
  %50 = load ptr, ptr %45, align 8
  %51 = getelementptr inbounds i8, ptr %50, i64 16
  %52 = load ptr, ptr %51, align 8
  call void %52(ptr noundef nonnull align 8 dereferenceable(20) %45, ptr noundef nonnull align 8 dereferenceable(40) %49) #23
  call void @_ZN9Assembler5movsdE11XMMRegister7Address(ptr noundef nonnull align 8 dereferenceable(40) %1, i32 %spec.select.i.i, ptr noundef nonnull %5) #23
  call void @llvm.lifetime.end.p0(i64 64, ptr nonnull %5)
  br label %_ZN14MacroAssembler6movdblE11XMMRegister7Address.exit

53:                                               ; preds = %3
  call void @llvm.memcpy.p0.p0.i64(ptr noundef nonnull align 8 dereferenceable(21) %7, ptr noundef nonnull align 8 dereferenceable(21) %8, i64 21, i1 false)
  %54 = getelementptr inbounds i8, ptr %7, i64 24
  %55 = load ptr, ptr %43, align 8
  %56 = getelementptr inbounds i8, ptr %55, i64 16
  %57 = load ptr, ptr %56, align 8
  call void %57(ptr noundef nonnull align 8 dereferenceable(20) %43, ptr noundef nonnull align 8 dereferenceable(40) %54) #23
  call void @llvm.lifetime.start.p0(i64 64, ptr nonnull %4)
  call void @llvm.memcpy.p0.p0.i64(ptr noundef nonnull align 8 dereferenceable(21) %4, ptr noundef nonnull align 8 dereferenceable(21) %7, i64 21, i1 false)
  %58 = getelementptr inbounds i8, ptr %4, i64 24
  %59 = load ptr, ptr %54, align 8
  %60 = getelementptr inbounds i8, ptr %59, i64 16
  %61 = load ptr, ptr %60, align 8
  call void %61(ptr noundef nonnull align 8 dereferenceable(20) %54, ptr noundef nonnull align 8 dereferenceable(40) %58) #23
  call void @_ZN9Assembler6movlpdE11XMMRegister7Address(ptr noundef nonnull align 8 dereferenceable(40) %1, i32 %spec.select.i.i, ptr noundef nonnull %4) #23
  call void @llvm.lifetime.end.p0(i64 64, ptr nonnull %4)
  br label %_ZN14MacroAssembler6movdblE11XMMRegister7Address.exit

_ZN14MacroAssembler6movdblE11XMMRegister7Address.exit: ; preds = %44, %53
  call void @llvm.lifetime.end.p0(i64 64, ptr nonnull %6)
  call void @llvm.lifetime.end.p0(i64 64, ptr nonnull %7)
  ret void
}